target datalayout = "e-m:e-p270:32:32-p271:32:32-p272:64:64-i64:64-i128:128-f80:128-n8:16:32:64-S128"
target triple = "x86_64-pc-linux-gnu"

%struct.Vec_Int_t_ = type { i32, i32, ptr }
%struct.Gia_Man_t_ = type { ptr, ptr, i32, i32, i32, i32, ptr, ptr, i32, i32, i32, ptr, ptr, %struct.Vec_Int_t_, %struct.Vec_Int_t_, i32, i32, i32, %struct.Vec_Int_t_, ptr, ptr, ptr, i32, i32, i32, i32, ptr, ptr, ptr, ptr, ptr, i32, i32, ptr, i32, ptr, ptr, ptr, ptr, ptr, ptr, ptr, ptr, ptr, ptr, ptr, ptr, ptr, ptr, ptr, ptr, ptr, ptr, %struct.Vec_Int_t_, %struct.Vec_Int_t_, ptr, ptr, ptr, ptr, ptr, ptr, ptr, ptr, ptr, ptr, ptr, ptr, ptr, ptr, ptr, ptr, ptr, ptr, ptr, ptr, ptr, i32, float, float, ptr, ptr, i32, ptr, ptr, ptr, ptr, ptr, ptr, ptr, ptr, ptr, ptr, ptr, ptr, ptr, ptr, ptr, i64, i64, ptr, ptr, i32, i32, i32, i32, i32, i32, i32, i32, i32, i32, i32, i32, ptr, ptr, ptr, ptr, ptr, ptr, ptr, ptr, i32, i32, i32, ptr, i32, i32, ptr, ptr, ptr, ptr, ptr, ptr, i32, i32, ptr, %struct.Vec_Int_t_, %struct.Vec_Int_t_, %struct.Vec_Int_t_, ptr, ptr, ptr, i32, i32, i32, i32, ptr, ptr, ptr, ptr, ptr }
%struct.Vec_Wrd_t_ = type { i32, i32, ptr }

; Function Attrs: inlinehint nounwind uwtable
define internal ptr @Vec_WrdEntryP(ptr noundef %0, i32 noundef %1) #1 {
  %3 = alloca ptr, align 8
  %4 = alloca i32, align 4
  store ptr %0, ptr %3, align 8, !tbaa !122
  store i32 %1, ptr %4, align 4, !tbaa !8
  %5 = load ptr, ptr %3, align 8, !tbaa !122
  %6 = getelementptr inbounds nuw %struct.Vec_Wrd_t_, ptr %5, i32 0, i32 2
  %7 = load ptr, ptr %6, align 8, !tbaa !127
  %8 = load i32, ptr %4, align 4, !tbaa !8
  %9 = sext i32 %8 to i64
  %10 = getelementptr inbounds i64, ptr %7, i64 %9
  ret ptr %10
}

; Function Attrs: inlinehint nounwind uwtable
define internal i32 @Abc_LitIsCompl(i32 noundef %0) #1 {
  %2 = alloca i32, align 4
  store i32 %0, ptr %2, align 4, !tbaa !8
  %3 = load i32, ptr %2, align 4, !tbaa !8
  %4 = and i32 %3, 1
  ret i32 %4
}

; Function Attrs: inlinehint nounwind uwtable
define internal ptr @Gia_ManBuiltInData(ptr noundef %0, i32 noundef %1) #1 {
  %3 = alloca ptr, align 8
  %4 = alloca i32, align 4
  store ptr %0, ptr %3, align 8, !tbaa !19
  store i32 %1, ptr %4, align 4, !tbaa !8
  %5 = load ptr, ptr %3, align 8, !tbaa !19
  %6 = getelementptr inbounds nuw %struct.Gia_Man_t_, ptr %5, i32 0, i32 113
  %7 = load ptr, ptr %6, align 8, !tbaa !119
  %8 = load ptr, ptr %3, align 8, !tbaa !19
  %9 = getelementptr inbounds nuw %struct.Gia_Man_t_, ptr %8, i32 0, i32 109
  %10 = load i32, ptr %9, align 8, !tbaa !116
  %11 = load i32, ptr %4, align 4, !tbaa !8
  %12 = mul nsw i32 %10, %11
  %13 = call ptr @Vec_WrdEntryP(ptr noundef %7, i32 noundef %12)
  ret ptr %13
}

; Function Attrs: nounwind uwtable
define i32 @Gia_ManBuiltInSimCheckEqual(ptr noundef %0, i32 noundef %1, i32 noundef %2) #0 {
  %4 = alloca i32, align 4
  %5 = alloca ptr, align 8
  %6 = alloca i32, align 4
  %7 = alloca i32, align 4
  %8 = alloca ptr, align 8
  %9 = alloca ptr, align 8
  %10 = alloca i32, align 4
  %11 = alloca i32, align 4
  store ptr %0, ptr %5, align 8, !tbaa !19
  store i32 %1, ptr %6, align 4, !tbaa !8
  store i32 %2, ptr %7, align 4, !tbaa !8
  call void @llvm.lifetime.start.p0(i64 8, ptr %8) #11
  %12 = load ptr, ptr %5, align 8, !tbaa !19
  %13 = load i32, ptr %6, align 4, !tbaa !8
  %14 = call i32 @Abc_Lit2Var(i32 noundef %13)
  %15 = call ptr @Gia_ManBuiltInData(ptr noundef %12, i32 noundef %14)
  store ptr %15, ptr %8, align 8, !tbaa !129
  call void @llvm.lifetime.start.p0(i64 8, ptr %9) #11
  %16 = load ptr, ptr %5, align 8, !tbaa !19
  %17 = load i32, ptr %7, align 4, !tbaa !8
  %18 = call i32 @Abc_Lit2Var(i32 noundef %17)
  %19 = call ptr @Gia_ManBuiltInData(ptr noundef %16, i32 noundef %18)
  store ptr %19, ptr %9, align 8, !tbaa !129
  call void @llvm.lifetime.start.p0(i64 4, ptr %10) #11
  %20 = load i32, ptr %6, align 4, !tbaa !8
  %21 = call i32 @Abc_LitIsCompl(i32 noundef %20)
  %22 = icmp ne i32 %21, 0
  br i1 %22, label %23, label %81

23:                                               ; preds = %3
  %24 = load i32, ptr %7, align 4, !tbaa !8
  %25 = call i32 @Abc_LitIsCompl(i32 noundef %24)
  %26 = icmp ne i32 %25, 0
  br i1 %26, label %27, label %54

27:                                               ; preds = %23
  store i32 0, ptr %10, align 4, !tbaa !8
  br label %28

28:                                               ; preds = %50, %27
  %29 = load i32, ptr %10, align 4, !tbaa !8
  %30 = load ptr, ptr %5, align 8, !tbaa !19
  %31 = getelementptr inbounds nuw %struct.Gia_Man_t_, ptr %30, i32 0, i32 109
  %32 = load i32, ptr %31, align 8, !tbaa !116
  %33 = icmp slt i32 %29, %32
  br i1 %33, label %34, label %53

34:                                               ; preds = %28
  %35 = load ptr, ptr %8, align 8, !tbaa !129
  %36 = load i32, ptr %10, align 4, !tbaa !8
  %37 = sext i32 %36 to i64
  %38 = getelementptr inbounds i64, ptr %35, i64 %37
  %39 = load i64, ptr %38, align 8, !tbaa !29
  %40 = xor i64 %39, -1
  %41 = load ptr, ptr %9, align 8, !tbaa !129
  %42 = load i32, ptr %10, align 4, !tbaa !8
  %43 = sext i32 %42 to i64
  %44 = getelementptr inbounds i64, ptr %41, i64 %43
  %45 = load i64, ptr %44, align 8, !tbaa !29
  %46 = xor i64 %45, -1
  %47 = icmp ne i64 %40, %46
  br i1 %47, label %48, label %49

48:                                               ; preds = %34
  store i32 0, ptr %4, align 4
  store i32 1, ptr %11, align 4
  br label %138

49:                                               ; preds = %34
  br label %50

50:                                               ; preds = %49
  %51 = load i32, ptr %10, align 4, !tbaa !8
  %52 = add nsw i32 %51, 1
  store i32 %52, ptr %10, align 4, !tbaa !8
  br label %28, !llvm.loop !142

53:                                               ; preds = %28
  br label %80

54:                                               ; preds = %23
  store i32 0, ptr %10, align 4, !tbaa !8
  br label %55

55:                                               ; preds = %76, %54
  %56 = load i32, ptr %10, align 4, !tbaa !8
  %57 = load ptr, ptr %5, align 8, !tbaa !19
  %58 = getelementptr inbounds nuw %struct.Gia_Man_t_, ptr %57, i32 0, i32 109
  %59 = load i32, ptr %58, align 8, !tbaa !116
  %60 = icmp slt i32 %56, %59
  br i1 %60, label %61, label %79

61:                                               ; preds = %55
  %62 = load ptr, ptr %8, align 8, !tbaa !129
  %63 = load i32, ptr %10, align 4, !tbaa !8
  %64 = sext i32 %63 to i64
  %65 = getelementptr inbounds i64, ptr %62, i64 %64
  %66 = load i64, ptr %65, align 8, !tbaa !29
  %67 = xor i64 %66, -1
  %68 = load ptr, ptr %9, align 8, !tbaa !129
  %69 = load i32, ptr %10, align 4, !tbaa !8
  %70 = sext i32 %69 to i64
  %71 = getelementptr inbounds i64, ptr %68, i64 %70
  %72 = load i64, ptr %71, align 8, !tbaa !29
  %73 = icmp ne i64 %67, %72
  br i1 %73, label %74, label %75

74:                                               ; preds = %61
  store i32 0, ptr %4, align 4
  store i32 1, ptr %11, align 4
  br label %138

75:                                               ; preds = %61
  br label %76

76:                                               ; preds = %75
  %77 = load i32, ptr %10, align 4, !tbaa !8
  %78 = add nsw i32 %77, 1
  store i32 %78, ptr %10, align 4, !tbaa !8
  br label %55, !llvm.loop !143

79:                                               ; preds = %55
  br label %80

80:                                               ; preds = %79, %53
  br label %137

81:                                               ; preds = %3
  %82 = load i32, ptr %7, align 4, !tbaa !8
  %83 = call i32 @Abc_LitIsCompl(i32 noundef %82)
  %84 = icmp ne i32 %83, 0
  br i1 %84, label %85, label %111

85:                                               ; preds = %81
  store i32 0, ptr %10, align 4, !tbaa !8
  br label %86

86:                                               ; preds = %107, %85
  %87 = load i32, ptr %10, align 4, !tbaa !8
  %88 = load ptr, ptr %5, align 8, !tbaa !19
  %89 = getelementptr inbounds nuw %struct.Gia_Man_t_, ptr %88, i32 0, i32 109
  %90 = load i32, ptr %89, align 8, !tbaa !116
  %91 = icmp slt i32 %87, %90
  br i1 %91, label %92, label %110

92:                                               ; preds = %86
  %93 = load ptr, ptr %8, align 8, !tbaa !129
  %94 = load i32, ptr %10, align 4, !tbaa !8
  %95 = sext i32 %94 to i64
  %96 = getelementptr inbounds i64, ptr %93, i64 %95
  %97 = load i64, ptr %96, align 8, !tbaa !29
  %98 = load ptr, ptr %9, align 8, !tbaa !129
  %99 = load i32, ptr %10, align 4, !tbaa !8
  %100 = sext i32 %99 to i64
  %101 = getelementptr inbounds i64, ptr %98, i64 %100
  %102 = load i64, ptr %101, align 8, !tbaa !29
  %103 = xor i64 %102, -1
  %104 = icmp ne i64 %97, %103
  br i1 %104, label %105, label %106

105:                                              ; preds = %92
  store i32 0, ptr %4, align 4
  store i32 1, ptr %11, align 4
  br label %138

106:                                              ; preds = %92
  br label %107

107:                                              ; preds = %106
  %108 = load i32, ptr %10, align 4, !tbaa !8
  %109 = add nsw i32 %108, 1
  store i32 %109, ptr %10, align 4, !tbaa !8
  br label %86, !llvm.loop !144

110:                                              ; preds = %86
  br label %136

111:                                              ; preds = %81
  store i32 0, ptr %10, align 4, !tbaa !8
  br label %112

112:                                              ; preds = %132, %111
  %113 = load i32, ptr %10, align 4, !tbaa !8
  %114 = load ptr, ptr %5, align 8, !tbaa !19
  %115 = getelementptr inbounds nuw %struct.Gia_Man_t_, ptr %114, i32 0, i32 109
  %116 = load i32, ptr %115, align 8, !tbaa !116
  %117 = icmp slt i32 %113, %116
  br i1 %117, label %118, label %135

118:                                              ; preds = %112
  %119 = load ptr, ptr %8, align 8, !tbaa !129
  %120 = load i32, ptr %10, align 4, !tbaa !8
  %121 = sext i32 %120 to i64
  %122 = getelementptr inbounds i64, ptr %119, i64 %121
  %123 = load i64, ptr %122, align 8, !tbaa !29
  %124 = load ptr, ptr %9, align 8, !tbaa !129
  %125 = load i32, ptr %10, align 4, !tbaa !8
  %126 = sext i32 %125 to i64
  %127 = getelementptr inbounds i64, ptr %124, i64 %126
  %128 = load i64, ptr %127, align 8, !tbaa !29
  %129 = icmp ne i64 %123, %128
  br i1 %129, label %130, label %131

130:                                              ; preds = %118
  store i32 0, ptr %4, align 4
  store i32 1, ptr %11, align 4
  br label %138

131:                                              ; preds = %118
  br label %132

132:                                              ; preds = %131
  %133 = load i32, ptr %10, align 4, !tbaa !8
  %134 = add nsw i32 %133, 1
  store i32 %134, ptr %10, align 4, !tbaa !8
  br label %112, !llvm.loop !145

135:                                              ; preds = %112
  br label %136

136:                                              ; preds = %135, %110
  br label %137

137:                                              ; preds = %136, %80
  store i32 1, ptr %4, align 4
  store i32 1, ptr %11, align 4
  br label %138

138:                                              ; preds = %137, %130, %105, %74, %48
  call void @llvm.lifetime.end.p0(i64 4, ptr %10) #11
  call void @llvm.lifetime.end.p0(i64 8, ptr %9) #11
  call void @llvm.lifetime.end.p0(i64 8, ptr %8) #11
  %139 = load i32, ptr %4, align 4
  ret i32 %139
}

; Function Attrs: inlinehint nounwind uwtable
define internal i32 @Abc_Lit2Var(i32 noundef %0) #1 {
  %2 = alloca i32, align 4
  store i32 %0, ptr %2, align 4, !tbaa !8
  %3 = load i32, ptr %2, align 4, !tbaa !8
  %4 = ashr i32 %3, 1
  ret i32 %4
}

; Function Attrs: nounwind uwtable
define i32 @Gia_ManIncrSimCheckEqual(ptr noundef %0, i32 noundef %1, i32 noundef %2) #0 {
  %4 = alloca ptr, align 8
  %5 = alloca i32, align 4
  %6 = alloca i32, align 4
  store ptr %0, ptr %4, align 8, !tbaa !19
  store i32 %1, ptr %5, align 4, !tbaa !8
  store i32 %2, ptr %6, align 4, !tbaa !8
  %7 = load ptr, ptr %4, align 8, !tbaa !19
  call void @Gia_ManIncrSimUpdate(ptr noundef %7)
  %8 = load ptr, ptr %4, align 8, !tbaa !19
  %9 = load i32, ptr %5, align 4, !tbaa !8
  %10 = call i32 @Abc_Lit2Var(i32 noundef %9)
  call void @Gia_ManIncrSimCone_rec(ptr noundef %8, i32 noundef %10)
  %11 = load ptr, ptr %4, align 8, !tbaa !19
  %12 = load i32, ptr %6, align 4, !tbaa !8
  %13 = call i32 @Abc_Lit2Var(i32 noundef %12)
  call void @Gia_ManIncrSimCone_rec(ptr noundef %11, i32 noundef %13)
  %14 = load ptr, ptr %4, align 8, !tbaa !19
  %15 = load i32, ptr %5, align 4, !tbaa !8
  %16 = load i32, ptr %6, align 4, !tbaa !8
  %17 = call i32 @Gia_ManBuiltInSimCheckEqual(ptr noundef %14, i32 noundef %15, i32 noundef %16)
  ret i32 %17
}