; Function Attrs: nounwind uwtable
define range(i32 0, 2) i32 @Gia_ManIncrSimCheckEqual(ptr noundef %0, i32 noundef %1, i32 noundef %2) local_unnamed_addr #1 {
  tail call void @Gia_ManIncrSimUpdate(ptr noundef %0)
  %4 = ashr i32 %1, 1
  tail call void @Gia_ManIncrSimCone_rec(ptr noundef %0, i32 noundef %4)
  %5 = ashr i32 %2, 1
  tail call void @Gia_ManIncrSimCone_rec(ptr noundef %0, i32 noundef %5)
  %6 = getelementptr i8, ptr %0, i64 816
  %.val43.i = load i32, ptr %6, align 8, !tbaa !114
  %7 = getelementptr i8, ptr %0, i64 832
  %.val44.i = load ptr, ptr %7, align 8, !tbaa !123
  %8 = getelementptr i8, ptr %.val44.i, i64 8
  %.val44.val.i = load ptr, ptr %8, align 8, !tbaa !119
  %9 = mul nsw i32 %.val43.i, %4
  %10 = sext i32 %9 to i64
  %11 = getelementptr inbounds i64, ptr %.val44.val.i, i64 %10
  %12 = mul nsw i32 %.val43.i, %5
  %13 = sext i32 %12 to i64
  %14 = getelementptr inbounds i64, ptr %.val44.val.i, i64 %13
  %15 = and i32 %1, 1
  %.not.i = icmp eq i32 %15, 0
  %16 = and i32 %2, 1
  %.not36.i = icmp eq i32 %16, 0
  %17 = icmp sgt i32 %.val43.i, 0
  br i1 %.not.i, label %30, label %18

18:                                               ; preds = %3
  br i1 %.not36.i, label %.preheader48.i, label %.preheader51.i

.preheader51.i:                                   ; preds = %18
  br i1 %17, label %.lr.ph.preheader.i, label %Gia_ManBuiltInSimCheckEqual.exit

.lr.ph.preheader.i:                               ; preds = %.preheader51.i
  %wide.trip.count.i = zext nneg i32 %.val43.i to i64
  br label %.lr.ph.i

.preheader48.i:                                   ; preds = %18
  br i1 %17, label %.lr.ph58.preheader.i, label %Gia_ManBuiltInSimCheckEqual.exit

.lr.ph58.preheader.i:                             ; preds = %.preheader48.i
  %wide.trip.count82.i = zext nneg i32 %.val43.i to i64
  br label %.lr.ph58.i

19:                                               ; preds = %.lr.ph.i
  %indvars.iv.next.i = add nuw nsw i64 %indvars.iv.i, 1
  %exitcond.not.i = icmp eq i64 %indvars.iv.next.i, %wide.trip.count.i
  br i1 %exitcond.not.i, label %Gia_ManBuiltInSimCheckEqual.exit, label %.lr.ph.i, !llvm.loop !139

.lr.ph.i:                                         ; preds = %19, %.lr.ph.preheader.i
  %indvars.iv.i = phi i64 [ 0, %.lr.ph.preheader.i ], [ %indvars.iv.next.i, %19 ]
  %20 = getelementptr inbounds nuw i64, ptr %11, i64 %indvars.iv.i
  %21 = load i64, ptr %20, align 8, !tbaa !121
  %22 = getelementptr inbounds nuw i64, ptr %14, i64 %indvars.iv.i
  %23 = load i64, ptr %22, align 8, !tbaa !121
  %.not41.i = icmp eq i64 %21, %23
  br i1 %.not41.i, label %19, label %Gia_ManBuiltInSimCheckEqual.exit

24:                                               ; preds = %.lr.ph58.i
  %indvars.iv.next80.i = add nuw nsw i64 %indvars.iv79.i, 1
  %exitcond83.not.i = icmp eq i64 %indvars.iv.next80.i, %wide.trip.count82.i
  br i1 %exitcond83.not.i, label %Gia_ManBuiltInSimCheckEqual.exit, label %.lr.ph58.i, !llvm.loop !140

.lr.ph58.i:                                       ; preds = %24, %.lr.ph58.preheader.i
  %indvars.iv79.i = phi i64 [ 0, %.lr.ph58.preheader.i ], [ %indvars.iv.next80.i, %24 ]
  %25 = getelementptr inbounds nuw i64, ptr %11, i64 %indvars.iv79.i
  %26 = load i64, ptr %25, align 8, !tbaa !121
  %27 = getelementptr inbounds nuw i64, ptr %14, i64 %indvars.iv79.i
  %28 = load i64, ptr %27, align 8, !tbaa !121
  %29 = xor i64 %28, %26
  %.not40.i = icmp eq i64 %29, -1
  br i1 %.not40.i, label %24, label %Gia_ManBuiltInSimCheckEqual.exit

30:                                               ; preds = %3
  br i1 %.not36.i, label %.preheader.i, label %.preheader45.i

.preheader45.i:                                   ; preds = %30
  br i1 %17, label %.lr.ph63.preheader.i, label %Gia_ManBuiltInSimCheckEqual.exit

.lr.ph63.preheader.i:                             ; preds = %.preheader45.i
  %wide.trip.count87.i = zext nneg i32 %.val43.i to i64
  br label %.lr.ph63.i

.preheader.i:                                     ; preds = %30
  br i1 %17, label %.lr.ph68.preheader.i, label %Gia_ManBuiltInSimCheckEqual.exit

.lr.ph68.preheader.i:                             ; preds = %.preheader.i
  %wide.trip.count92.i = zext nneg i32 %.val43.i to i64
  br label %.lr.ph68.i

31:                                               ; preds = %.lr.ph63.i
  %indvars.iv.next85.i = add nuw nsw i64 %indvars.iv84.i, 1
  %exitcond88.not.i = icmp eq i64 %indvars.iv.next85.i, %wide.trip.count87.i
  br i1 %exitcond88.not.i, label %Gia_ManBuiltInSimCheckEqual.exit, label %.lr.ph63.i, !llvm.loop !141

.lr.ph63.i:                                       ; preds = %31, %.lr.ph63.preheader.i
  %indvars.iv84.i = phi i64 [ 0, %.lr.ph63.preheader.i ], [ %indvars.iv.next85.i, %31 ]
  %32 = getelementptr inbounds nuw i64, ptr %11, i64 %indvars.iv84.i
  %33 = load i64, ptr %32, align 8, !tbaa !121
  %34 = getelementptr inbounds nuw i64, ptr %14, i64 %indvars.iv84.i
  %35 = load i64, ptr %34, align 8, !tbaa !121
  %36 = xor i64 %35, %33
  %.not38.i = icmp eq i64 %36, -1
  br i1 %.not38.i, label %31, label %Gia_ManBuiltInSimCheckEqual.exit

37:                                               ; preds = %.lr.ph68.i
  %indvars.iv.next90.i = add nuw nsw i64 %indvars.iv89.i, 1
  %exitcond93.not.i = icmp eq i64 %indvars.iv.next90.i, %wide.trip.count92.i
  br i1 %exitcond93.not.i, label %Gia_ManBuiltInSimCheckEqual.exit, label %.lr.ph68.i, !llvm.loop !142

.lr.ph68.i:                                       ; preds = %37, %.lr.ph68.preheader.i
  %indvars.iv89.i = phi i64 [ 0, %.lr.ph68.preheader.i ], [ %indvars.iv.next90.i, %37 ]
  %38 = getelementptr inbounds nuw i64, ptr %11, i64 %indvars.iv89.i
  %39 = load i64, ptr %38, align 8, !tbaa !121
  %40 = getelementptr inbounds nuw i64, ptr %14, i64 %indvars.iv89.i
  %41 = load i64, ptr %40, align 8, !tbaa !121
  %.not37.i = icmp eq i64 %39, %41
  br i1 %.not37.i, label %37, label %Gia_ManBuiltInSimCheckEqual.exit

Gia_ManBuiltInSimCheckEqual.exit:                 ; preds = %19, %.lr.ph.i, %24, %.lr.ph58.i, %31, %.lr.ph63.i, %37, %.lr.ph68.i, %.preheader51.i, %.preheader48.i, %.preheader45.i, %.preheader.i
  %.035.i = phi i32 [ 1, %.preheader.i ], [ 1, %.preheader45.i ], [ 1, %.preheader48.i ], [ 1, %.preheader51.i ], [ 1, %37 ], [ 0, %.lr.ph68.i ], [ 1, %31 ], [ 0, %.lr.ph63.i ], [ 1, %24 ], [ 0, %.lr.ph58.i ], [ 1, %19 ], [ 0, %.lr.ph.i ]
  ret i32 %.035.i
}